target datalayout = "e-m:e-p270:32:32-p271:32:32-p272:64:64-i64:64-i128:128-f80:128-n8:16:32:64-S128"
target triple = "x86_64-pc-linux-gnu"

%struct.jpeg_compress_struct = type { ptr, ptr, ptr, ptr, i32, i32, ptr, i32, i32, i32, i32, double, i32, i32, i32, ptr, [4 x ptr], [4 x ptr], [4 x ptr], [16 x i8], [16 x i8], [16 x i8], i32, ptr, i32, i32, i32, i32, i32, i32, i32, i32, i32, i8, i8, i8, i16, i16, i32, i32, i32, i32, i32, i32, i32, [4 x ptr], i32, i32, i32, [10 x i32], i32, i32, i32, i32, ptr, ptr, ptr, ptr, ptr, ptr, ptr, ptr, ptr, ptr, i32 }
%struct.jpeg_error_mgr = type { ptr, ptr, ptr, ptr, ptr, i32, %union.anon, i32, i64, ptr, i32, ptr, i32, i32 }
%union.anon = type { [8 x i32], [48 x i8] }
%struct.jpeg_memory_mgr = type { ptr, ptr, ptr, ptr, ptr, ptr, ptr, ptr, ptr, ptr, ptr, i64, i64 }
%struct.my_fdct_controller = type { %struct.jpeg_forward_dct, ptr, ptr, ptr, [4 x ptr], ptr, ptr, ptr, ptr, [4 x ptr], ptr }
%struct.jpeg_forward_dct = type { ptr, ptr, ptr }

; Function Attrs: nounwind uwtable
define void @jinit_forward_dct(ptr noundef %0) #0 {
  %2 = alloca ptr, align 8
  %3 = alloca ptr, align 8
  %4 = alloca i32, align 4
  store ptr %0, ptr %2, align 8, !tbaa !3
  call void @llvm.lifetime.start.p0(i64 8, ptr %3) #3
  call void @llvm.lifetime.start.p0(i64 4, ptr %4) #3
  %5 = load ptr, ptr %2, align 8, !tbaa !3
  %6 = getelementptr inbounds nuw %struct.jpeg_compress_struct, ptr %5, i32 0, i32 12
  %7 = load i32, ptr %6, align 8, !tbaa !8
  %8 = icmp ne i32 %7, 8
  br i1 %8, label %9, label %28

9:                                                ; preds = %1
  %10 = load ptr, ptr %2, align 8, !tbaa !3
  %11 = getelementptr inbounds nuw %struct.jpeg_compress_struct, ptr %10, i32 0, i32 0
  %12 = load ptr, ptr %11, align 8, !tbaa !26
  %13 = getelementptr inbounds nuw %struct.jpeg_error_mgr, ptr %12, i32 0, i32 5
  store i32 15, ptr %13, align 8, !tbaa !27
  %14 = load ptr, ptr %2, align 8, !tbaa !3
  %15 = getelementptr inbounds nuw %struct.jpeg_compress_struct, ptr %14, i32 0, i32 12
  %16 = load i32, ptr %15, align 8, !tbaa !8
  %17 = load ptr, ptr %2, align 8, !tbaa !3
  %18 = getelementptr inbounds nuw %struct.jpeg_compress_struct, ptr %17, i32 0, i32 0
  %19 = load ptr, ptr %18, align 8, !tbaa !26
  %20 = getelementptr inbounds nuw %struct.jpeg_error_mgr, ptr %19, i32 0, i32 6
  %21 = getelementptr inbounds [8 x i32], ptr %20, i64 0, i64 0
  store i32 %16, ptr %21, align 4, !tbaa !31
  %22 = load ptr, ptr %2, align 8, !tbaa !3
  %23 = getelementptr inbounds nuw %struct.jpeg_compress_struct, ptr %22, i32 0, i32 0
  %24 = load ptr, ptr %23, align 8, !tbaa !26
  %25 = getelementptr inbounds nuw %struct.jpeg_error_mgr, ptr %24, i32 0, i32 0
  %26 = load ptr, ptr %25, align 8, !tbaa !32
  %27 = load ptr, ptr %2, align 8, !tbaa !3
  call void %26(ptr noundef %27)
  br label %28

28:                                               ; preds = %9, %1
  %29 = load ptr, ptr %2, align 8, !tbaa !3
  %30 = getelementptr inbounds nuw %struct.jpeg_compress_struct, ptr %29, i32 0, i32 1
  %31 = load ptr, ptr %30, align 8, !tbaa !33
  %32 = getelementptr inbounds nuw %struct.jpeg_memory_mgr, ptr %31, i32 0, i32 0
  %33 = load ptr, ptr %32, align 8, !tbaa !34
  %34 = load ptr, ptr %2, align 8, !tbaa !3
  %35 = call ptr %33(ptr noundef %34, i32 noundef 1, i64 noundef 152)
  store ptr %35, ptr %3, align 8, !tbaa !36
  %36 = load ptr, ptr %3, align 8, !tbaa !36
  %37 = load ptr, ptr %2, align 8, !tbaa !3
  %38 = getelementptr inbounds nuw %struct.jpeg_compress_struct, ptr %37, i32 0, i32 61
  store ptr %36, ptr %38, align 8, !tbaa !37
  %39 = load ptr, ptr %3, align 8, !tbaa !36
  %40 = getelementptr inbounds nuw %struct.my_fdct_controller, ptr %39, i32 0, i32 0
  %41 = getelementptr inbounds nuw %struct.jpeg_forward_dct, ptr %40, i32 0, i32 0
  store ptr @start_pass_fdctmgr, ptr %41, align 8, !tbaa !38
  %42 = load ptr, ptr %2, align 8, !tbaa !3
  %43 = getelementptr inbounds nuw %struct.jpeg_compress_struct, ptr %42, i32 0, i32 29
  %44 = load i32, ptr %43, align 4, !tbaa !43
  switch i32 %44, label %84 [
    i32 0, label %45
    i32 1, label %58
    i32 2, label %71
  ]

45:                                               ; preds = %28
  %46 = load ptr, ptr %3, align 8, !tbaa !36
  %47 = getelementptr inbounds nuw %struct.my_fdct_controller, ptr %46, i32 0, i32 0
  %48 = getelementptr inbounds nuw %struct.jpeg_forward_dct, ptr %47, i32 0, i32 1
  store ptr @forward_DCT, ptr %48, align 8, !tbaa !44
  %49 = call i32 @jsimd_can_fdct_islow()
  %50 = icmp ne i32 %49, 0
  br i1 %50, label %51, label %54

51:                                               ; preds = %45
  %52 = load ptr, ptr %3, align 8, !tbaa !36
  %53 = getelementptr inbounds nuw %struct.my_fdct_controller, ptr %52, i32 0, i32 1
  store ptr @jsimd_fdct_islow, ptr %53, align 8, !tbaa !45
  br label %57

54:                                               ; preds = %45
  %55 = load ptr, ptr %3, align 8, !tbaa !36
  %56 = getelementptr inbounds nuw %struct.my_fdct_controller, ptr %55, i32 0, i32 1
  store ptr @jpeg_fdct_islow, ptr %56, align 8, !tbaa !45
  br label %57

57:                                               ; preds = %54, %51
  br label %95

58:                                               ; preds = %28
  %59 = load ptr, ptr %3, align 8, !tbaa !36
  %60 = getelementptr inbounds nuw %struct.my_fdct_controller, ptr %59, i32 0, i32 0
  %61 = getelementptr inbounds nuw %struct.jpeg_forward_dct, ptr %60, i32 0, i32 1
  store ptr @forward_DCT, ptr %61, align 8, !tbaa !44
  %62 = call i32 @jsimd_can_fdct_ifast()
  %63 = icmp ne i32 %62, 0
  br i1 %63, label %64, label %67

64:                                               ; preds = %58
  %65 = load ptr, ptr %3, align 8, !tbaa !36
  %66 = getelementptr inbounds nuw %struct.my_fdct_controller, ptr %65, i32 0, i32 1
  store ptr @jsimd_fdct_ifast, ptr %66, align 8, !tbaa !45
  br label %70

67:                                               ; preds = %58
  %68 = load ptr, ptr %3, align 8, !tbaa !36
  %69 = getelementptr inbounds nuw %struct.my_fdct_controller, ptr %68, i32 0, i32 1
  store ptr @jpeg_fdct_ifast, ptr %69, align 8, !tbaa !45
  br label %70

70:                                               ; preds = %67, %64
  br label %95

71:                                               ; preds = %28
  %72 = load ptr, ptr %3, align 8, !tbaa !36
  %73 = getelementptr inbounds nuw %struct.my_fdct_controller, ptr %72, i32 0, i32 0
  %74 = getelementptr inbounds nuw %struct.jpeg_forward_dct, ptr %73, i32 0, i32 1
  store ptr @forward_DCT_float, ptr %74, align 8, !tbaa !44
  %75 = call i32 @jsimd_can_fdct_float()
  %76 = icmp ne i32 %75, 0
  br i1 %76, label %77, label %80

77:                                               ; preds = %71
  %78 = load ptr, ptr %3, align 8, !tbaa !36
  %79 = getelementptr inbounds nuw %struct.my_fdct_controller, ptr %78, i32 0, i32 6
  store ptr @jsimd_fdct_float, ptr %79, align 8, !tbaa !46
  br label %83

80:                                               ; preds = %71
  %81 = load ptr, ptr %3, align 8, !tbaa !36
  %82 = getelementptr inbounds nuw %struct.my_fdct_controller, ptr %81, i32 0, i32 6
  store ptr @jpeg_fdct_float, ptr %82, align 8, !tbaa !46
  br label %83

83:                                               ; preds = %80, %77
  br label %95

84:                                               ; preds = %28
  %85 = load ptr, ptr %2, align 8, !tbaa !3
  %86 = getelementptr inbounds nuw %struct.jpeg_compress_struct, ptr %85, i32 0, i32 0
  %87 = load ptr, ptr %86, align 8, !tbaa !26
  %88 = getelementptr inbounds nuw %struct.jpeg_error_mgr, ptr %87, i32 0, i32 5
  store i32 48, ptr %88, align 8, !tbaa !27
  %89 = load ptr, ptr %2, align 8, !tbaa !3
  %90 = getelementptr inbounds nuw %struct.jpeg_compress_struct, ptr %89, i32 0, i32 0
  %91 = load ptr, ptr %90, align 8, !tbaa !26
  %92 = getelementptr inbounds nuw %struct.jpeg_error_mgr, ptr %91, i32 0, i32 0
  %93 = load ptr, ptr %92, align 8, !tbaa !32
  %94 = load ptr, ptr %2, align 8, !tbaa !3
  call void %93(ptr noundef %94)
  br label %95

95:                                               ; preds = %84, %83, %70, %57
  %96 = load ptr, ptr %2, align 8, !tbaa !3
  %97 = getelementptr inbounds nuw %struct.jpeg_compress_struct, ptr %96, i32 0, i32 29
  %98 = load i32, ptr %97, align 4, !tbaa !43
  switch i32 %98, label %137 [
    i32 0, label %99
    i32 1, label %99
    i32 2, label %118
  ]

99:                                               ; preds = %95, %95
  %100 = call i32 @jsimd_can_convsamp()
  %101 = icmp ne i32 %100, 0
  br i1 %101, label %102, label %105

102:                                              ; preds = %99
  %103 = load ptr, ptr %3, align 8, !tbaa !36
  %104 = getelementptr inbounds nuw %struct.my_fdct_controller, ptr %103, i32 0, i32 2
  store ptr @jsimd_convsamp, ptr %104, align 8, !tbaa !47
  br label %108

105:                                              ; preds = %99
  %106 = load ptr, ptr %3, align 8, !tbaa !36
  %107 = getelementptr inbounds nuw %struct.my_fdct_controller, ptr %106, i32 0, i32 2
  store ptr @convsamp, ptr %107, align 8, !tbaa !47
  br label %108

108:                                              ; preds = %105, %102
  %109 = call i32 @jsimd_can_quantize()
  %110 = icmp ne i32 %109, 0
  br i1 %110, label %111, label %114

111:                                              ; preds = %108
  %112 = load ptr, ptr %3, align 8, !tbaa !36
  %113 = getelementptr inbounds nuw %struct.my_fdct_controller, ptr %112, i32 0, i32 3
  store ptr @jsimd_quantize, ptr %113, align 8, !tbaa !48
  br label %117

114:                                              ; preds = %108
  %115 = load ptr, ptr %3, align 8, !tbaa !36
  %116 = getelementptr inbounds nuw %struct.my_fdct_controller, ptr %115, i32 0, i32 3
  store ptr @quantize, ptr %116, align 8, !tbaa !48
  br label %117

117:                                              ; preds = %114, %111
  br label %148

118:                                              ; preds = %95
  %119 = call i32 @jsimd_can_convsamp_float()
  %120 = icmp ne i32 %119, 0
  br i1 %120, label %121, label %124

121:                                              ; preds = %118
  %122 = load ptr, ptr %3, align 8, !tbaa !36
  %123 = getelementptr inbounds nuw %struct.my_fdct_controller, ptr %122, i32 0, i32 7
  store ptr @jsimd_convsamp_float, ptr %123, align 8, !tbaa !49
  br label %127

124:                                              ; preds = %118
  %125 = load ptr, ptr %3, align 8, !tbaa !36
  %126 = getelementptr inbounds nuw %struct.my_fdct_controller, ptr %125, i32 0, i32 7
  store ptr @convsamp_float, ptr %126, align 8, !tbaa !49
  br label %127

127:                                              ; preds = %124, %121
  %128 = call i32 @jsimd_can_quantize_float()
  %129 = icmp ne i32 %128, 0
  br i1 %129, label %130, label %133

130:                                              ; preds = %127
  %131 = load ptr, ptr %3, align 8, !tbaa !36
  %132 = getelementptr inbounds nuw %struct.my_fdct_controller, ptr %131, i32 0, i32 8
  store ptr @jsimd_quantize_float, ptr %132, align 8, !tbaa !50
  br label %136

133:                                              ; preds = %127
  %134 = load ptr, ptr %3, align 8, !tbaa !36
  %135 = getelementptr inbounds nuw %struct.my_fdct_controller, ptr %134, i32 0, i32 8
  store ptr @quantize_float, ptr %135, align 8, !tbaa !50
  br label %136

136:                                              ; preds = %133, %130
  br label %148

137:                                              ; preds = %95
  %138 = load ptr, ptr %2, align 8, !tbaa !3
  %139 = getelementptr inbounds nuw %struct.jpeg_compress_struct, ptr %138, i32 0, i32 0
  %140 = load ptr, ptr %139, align 8, !tbaa !26
  %141 = getelementptr inbounds nuw %struct.jpeg_error_mgr, ptr %140, i32 0, i32 5
  store i32 48, ptr %141, align 8, !tbaa !27
  %142 = load ptr, ptr %2, align 8, !tbaa !3
  %143 = getelementptr inbounds nuw %struct.jpeg_compress_struct, ptr %142, i32 0, i32 0
  %144 = load ptr, ptr %143, align 8, !tbaa !26
  %145 = getelementptr inbounds nuw %struct.jpeg_error_mgr, ptr %144, i32 0, i32 0
  %146 = load ptr, ptr %145, align 8, !tbaa !32
  %147 = load ptr, ptr %2, align 8, !tbaa !3
  call void %146(ptr noundef %147)
  br label %148

148:                                              ; preds = %137, %136, %117
  %149 = load ptr, ptr %2, align 8, !tbaa !3
  %150 = getelementptr inbounds nuw %struct.jpeg_compress_struct, ptr %149, i32 0, i32 29
  %151 = load i32, ptr %150, align 4, !tbaa !43
  %152 = icmp eq i32 %151, 2
  br i1 %152, label %153, label %163

153:                                              ; preds = %148
  %154 = load ptr, ptr %2, align 8, !tbaa !3
  %155 = getelementptr inbounds nuw %struct.jpeg_compress_struct, ptr %154, i32 0, i32 1
  %156 = load ptr, ptr %155, align 8, !tbaa !33
  %157 = getelementptr inbounds nuw %struct.jpeg_memory_mgr, ptr %156, i32 0, i32 0
  %158 = load ptr, ptr %157, align 8, !tbaa !34
  %159 = load ptr, ptr %2, align 8, !tbaa !3
  %160 = call ptr %158(ptr noundef %159, i32 noundef 1, i64 noundef 256)
  %161 = load ptr, ptr %3, align 8, !tbaa !36
  %162 = getelementptr inbounds nuw %struct.my_fdct_controller, ptr %161, i32 0, i32 10
  store ptr %160, ptr %162, align 8, !tbaa !51
  br label %173

163:                                              ; preds = %148
  %164 = load ptr, ptr %2, align 8, !tbaa !3
  %165 = getelementptr inbounds nuw %struct.jpeg_compress_struct, ptr %164, i32 0, i32 1
  %166 = load ptr, ptr %165, align 8, !tbaa !33
  %167 = getelementptr inbounds nuw %struct.jpeg_memory_mgr, ptr %166, i32 0, i32 0
  %168 = load ptr, ptr %167, align 8, !tbaa !34
  %169 = load ptr, ptr %2, align 8, !tbaa !3
  %170 = call ptr %168(ptr noundef %169, i32 noundef 1, i64 noundef 128)
  %171 = load ptr, ptr %3, align 8, !tbaa !36
  %172 = getelementptr inbounds nuw %struct.my_fdct_controller, ptr %171, i32 0, i32 5
  store ptr %170, ptr %172, align 8, !tbaa !52
  br label %173

173:                                              ; preds = %163, %153
  store i32 0, ptr %4, align 4, !tbaa !53
  br label %174

174:                                              ; preds = %188, %173
  %175 = load i32, ptr %4, align 4, !tbaa !53
  %176 = icmp slt i32 %175, 4
  br i1 %176, label %177, label %191

177:                                              ; preds = %174
  %178 = load ptr, ptr %3, align 8, !tbaa !36
  %179 = getelementptr inbounds nuw %struct.my_fdct_controller, ptr %178, i32 0, i32 4
  %180 = load i32, ptr %4, align 4, !tbaa !53
  %181 = sext i32 %180 to i64
  %182 = getelementptr inbounds [4 x ptr], ptr %179, i64 0, i64 %181
  store ptr null, ptr %182, align 8, !tbaa !54
  %183 = load ptr, ptr %3, align 8, !tbaa !36
  %184 = getelementptr inbounds nuw %struct.my_fdct_controller, ptr %183, i32 0, i32 9
  %185 = load i32, ptr %4, align 4, !tbaa !53
  %186 = sext i32 %185 to i64
  %187 = getelementptr inbounds [4 x ptr], ptr %184, i64 0, i64 %186
  store ptr null, ptr %187, align 8, !tbaa !55
  br label %188

188:                                              ; preds = %177
  %189 = load i32, ptr %4, align 4, !tbaa !53
  %190 = add nsw i32 %189, 1
  store i32 %190, ptr %4, align 4, !tbaa !53
  br label %174, !llvm.loop !56

191:                                              ; preds = %174
  call void @llvm.lifetime.end.p0(i64 4, ptr %4) #3
  call void @llvm.lifetime.end.p0(i64 8, ptr %3) #3
  ret void
}