; Function Attrs: nounwind uwtable
define void @jinit_forward_dct(ptr noundef %0) local_unnamed_addr #0 {
  %2 = getelementptr inbounds nuw i8, ptr %0, i64 72
  %3 = load i32, ptr %2, align 8, !tbaa !3
  %.not = icmp eq i32 %3, 8
  br i1 %.not, label %10, label %4

4:                                                ; preds = %1
  %5 = load ptr, ptr %0, align 8, !tbaa !24
  %6 = getelementptr inbounds nuw i8, ptr %5, i64 40
  store i32 15, ptr %6, align 8, !tbaa !25
  %7 = getelementptr inbounds nuw i8, ptr %5, i64 44
  store i32 %3, ptr %7, align 4, !tbaa !29
  %8 = load ptr, ptr %0, align 8, !tbaa !24
  %9 = load ptr, ptr %8, align 8, !tbaa !30
  tail call void %9(ptr noundef nonnull %0) #5
  br label %10

10:                                               ; preds = %4, %1
  %11 = getelementptr inbounds nuw i8, ptr %0, i64 8
  %12 = load ptr, ptr %11, align 8, !tbaa !31
  %13 = load ptr, ptr %12, align 8, !tbaa !32
  %14 = tail call ptr %13(ptr noundef nonnull %0, i32 noundef 1, i64 noundef 152) #5
  %15 = getelementptr inbounds nuw i8, ptr %0, i64 488
  store ptr %14, ptr %15, align 8, !tbaa !34
  store ptr @start_pass_fdctmgr, ptr %14, align 8, !tbaa !35
  %16 = getelementptr inbounds nuw i8, ptr %0, i64 276
  %17 = load i32, ptr %16, align 4, !tbaa !40
  switch i32 %17, label %36 [
    i32 0, label %18
    i32 1, label %24
    i32 2, label %30
  ]

18:                                               ; preds = %10
  %19 = getelementptr inbounds nuw i8, ptr %14, i64 8
  store ptr @forward_DCT, ptr %19, align 8, !tbaa !41
  %20 = tail call i32 @jsimd_can_fdct_islow() #5
  %.not50 = icmp eq i32 %20, 0
  %21 = getelementptr inbounds nuw i8, ptr %14, i64 24
  br i1 %.not50, label %23, label %22

22:                                               ; preds = %18
  store ptr @jsimd_fdct_islow, ptr %21, align 8, !tbaa !42
  br label %40

23:                                               ; preds = %18
  store ptr @jpeg_fdct_islow, ptr %21, align 8, !tbaa !42
  br label %40

24:                                               ; preds = %10
  %25 = getelementptr inbounds nuw i8, ptr %14, i64 8
  store ptr @forward_DCT, ptr %25, align 8, !tbaa !41
  %26 = tail call i32 @jsimd_can_fdct_ifast() #5
  %.not49 = icmp eq i32 %26, 0
  %27 = getelementptr inbounds nuw i8, ptr %14, i64 24
  br i1 %.not49, label %29, label %28

28:                                               ; preds = %24
  store ptr @jsimd_fdct_ifast, ptr %27, align 8, !tbaa !42
  br label %40

29:                                               ; preds = %24
  store ptr @jpeg_fdct_ifast, ptr %27, align 8, !tbaa !42
  br label %40

30:                                               ; preds = %10
  %31 = getelementptr inbounds nuw i8, ptr %14, i64 8
  store ptr @forward_DCT_float, ptr %31, align 8, !tbaa !41
  %32 = tail call i32 @jsimd_can_fdct_float() #5
  %.not48 = icmp eq i32 %32, 0
  %33 = getelementptr inbounds nuw i8, ptr %14, i64 88
  br i1 %.not48, label %35, label %34

34:                                               ; preds = %30
  store ptr @jsimd_fdct_float, ptr %33, align 8, !tbaa !43
  br label %40

35:                                               ; preds = %30
  store ptr @jpeg_fdct_float, ptr %33, align 8, !tbaa !43
  br label %40

36:                                               ; preds = %10
  %37 = load ptr, ptr %0, align 8, !tbaa !24
  %38 = getelementptr inbounds nuw i8, ptr %37, i64 40
  store i32 48, ptr %38, align 8, !tbaa !25
  %39 = load ptr, ptr %37, align 8, !tbaa !30
  tail call void %39(ptr noundef nonnull %0) #5
  br label %40

40:                                               ; preds = %34, %35, %28, %29, %22, %23, %36
  %41 = load i32, ptr %16, align 4, !tbaa !40
  switch i32 %41, label %56 [
    i32 0, label %42
    i32 1, label %42
    i32 2, label %49
  ]

42:                                               ; preds = %40, %40
  %43 = tail call i32 @jsimd_can_convsamp() #5
  %.not53 = icmp eq i32 %43, 0
  %spec.select = select i1 %.not53, ptr @convsamp, ptr @jsimd_convsamp
  %44 = getelementptr inbounds nuw i8, ptr %14, i64 32
  store ptr %spec.select, ptr %44, align 8, !tbaa !44
  %45 = tail call i32 @jsimd_can_quantize() #5
  %.not54 = icmp eq i32 %45, 0
  %46 = getelementptr inbounds nuw i8, ptr %14, i64 40
  br i1 %.not54, label %48, label %47

47:                                               ; preds = %42
  store ptr @jsimd_quantize, ptr %46, align 8, !tbaa !45
  br label %60

48:                                               ; preds = %42
  store ptr @quantize, ptr %46, align 8, !tbaa !45
  br label %60

49:                                               ; preds = %40
  %50 = tail call i32 @jsimd_can_convsamp_float() #5
  %.not51 = icmp eq i32 %50, 0
  %spec.select57 = select i1 %.not51, ptr @convsamp_float, ptr @jsimd_convsamp_float
  %51 = getelementptr inbounds nuw i8, ptr %14, i64 96
  store ptr %spec.select57, ptr %51, align 8, !tbaa !46
  %52 = tail call i32 @jsimd_can_quantize_float() #5
  %.not52 = icmp eq i32 %52, 0
  %53 = getelementptr inbounds nuw i8, ptr %14, i64 104
  br i1 %.not52, label %55, label %54

54:                                               ; preds = %49
  store ptr @jsimd_quantize_float, ptr %53, align 8, !tbaa !47
  br label %60

55:                                               ; preds = %49
  store ptr @quantize_float, ptr %53, align 8, !tbaa !47
  br label %60

56:                                               ; preds = %40
  %57 = load ptr, ptr %0, align 8, !tbaa !24
  %58 = getelementptr inbounds nuw i8, ptr %57, i64 40
  store i32 48, ptr %58, align 8, !tbaa !25
  %59 = load ptr, ptr %57, align 8, !tbaa !30
  tail call void %59(ptr noundef nonnull %0) #5
  br label %60

60:                                               ; preds = %54, %55, %47, %48, %56
  %61 = load i32, ptr %16, align 4, !tbaa !40
  %62 = icmp eq i32 %61, 2
  %63 = load ptr, ptr %11, align 8, !tbaa !31
  %64 = load ptr, ptr %63, align 8, !tbaa !32
  %. = select i1 %62, i64 256, i64 128
  %.61 = select i1 %62, i64 144, i64 80
  %65 = tail call ptr %64(ptr noundef nonnull %0, i32 noundef 1, i64 noundef %.) #5
  %66 = getelementptr inbounds nuw i8, ptr %14, i64 %.61
  store ptr %65, ptr %66, align 8, !tbaa !48
  %67 = getelementptr inbounds nuw i8, ptr %14, i64 48
  %68 = getelementptr inbounds nuw i8, ptr %14, i64 112
  tail call void @llvm.memset.p0.i64(ptr noundef nonnull align 8 dereferenceable(32) %67, i8 0, i64 32, i1 false), !tbaa !49
  tail call void @llvm.memset.p0.i64(ptr noundef nonnull align 8 dereferenceable(32) %68, i8 0, i64 32, i1 false), !tbaa !50
  ret void
}